target datalayout = "e-m:e-p270:32:32-p271:32:32-p272:64:64-i64:64-i128:128-f80:128-n8:16:32:64-S128"
target triple = "x86_64-pc-linux-gnu"

%"class.cv::tracking::impl::tld::TLDDetector" = type { %"class.std::vector", ptr, ptr, ptr, ptr, ptr, ptr, ptr, ptr, ptr, %"class.std::vector.0", %"class.std::vector.0", %"class.std::vector.5", %"class.std::vector.10", %"class.std::vector.10", %"class.std::vector.15", %"class.std::vector.15", %"class.std::vector.20", %"class.std::vector.20" }
%"class.std::vector" = type { %"struct.std::_Vector_base" }
%"struct.std::_Vector_base" = type { %"struct.std::_Vector_base<cv::tracking::impl::tld::TLDEnsembleClassifier, std::allocator<cv::tracking::impl::tld::TLDEnsembleClassifier>>::_Vector_impl" }
%"struct.std::_Vector_base<cv::tracking::impl::tld::TLDEnsembleClassifier, std::allocator<cv::tracking::impl::tld::TLDEnsembleClassifier>>::_Vector_impl" = type { %"struct.std::_Vector_base<cv::tracking::impl::tld::TLDEnsembleClassifier, std::allocator<cv::tracking::impl::tld::TLDEnsembleClassifier>>::_Vector_impl_data" }
%"struct.std::_Vector_base<cv::tracking::impl::tld::TLDEnsembleClassifier, std::allocator<cv::tracking::impl::tld::TLDEnsembleClassifier>>::_Vector_impl_data" = type { ptr, ptr, ptr }
%"class.std::vector.0" = type { %"struct.std::_Vector_base.1" }
%"struct.std::_Vector_base.1" = type { %"struct.std::_Vector_base<double, std::allocator<double>>::_Vector_impl" }
%"struct.std::_Vector_base<double, std::allocator<double>>::_Vector_impl" = type { %"struct.std::_Vector_base<double, std::allocator<double>>::_Vector_impl_data" }
%"struct.std::_Vector_base<double, std::allocator<double>>::_Vector_impl_data" = type { ptr, ptr, ptr }
%"class.std::vector.5" = type { %"struct.std::_Vector_base.6" }
%"struct.std::_Vector_base.6" = type { %"struct.std::_Vector_base<cv::Mat_<unsigned char>, std::allocator<cv::Mat_<unsigned char>>>::_Vector_impl" }
%"struct.std::_Vector_base<cv::Mat_<unsigned char>, std::allocator<cv::Mat_<unsigned char>>>::_Vector_impl" = type { %"struct.std::_Vector_base<cv::Mat_<unsigned char>, std::allocator<cv::Mat_<unsigned char>>>::_Vector_impl_data" }
%"struct.std::_Vector_base<cv::Mat_<unsigned char>, std::allocator<cv::Mat_<unsigned char>>>::_Vector_impl_data" = type { ptr, ptr, ptr }
%"class.std::vector.10" = type { %"struct.std::_Vector_base.11" }
%"struct.std::_Vector_base.11" = type { %"struct.std::_Vector_base<cv::Mat, std::allocator<cv::Mat>>::_Vector_impl" }
%"struct.std::_Vector_base<cv::Mat, std::allocator<cv::Mat>>::_Vector_impl" = type { %"struct.std::_Vector_base<cv::Mat, std::allocator<cv::Mat>>::_Vector_impl_data" }
%"struct.std::_Vector_base<cv::Mat, std::allocator<cv::Mat>>::_Vector_impl_data" = type { ptr, ptr, ptr }
%"class.std::vector.15" = type { %"struct.std::_Vector_base.16" }
%"struct.std::_Vector_base.16" = type { %"struct.std::_Vector_base<cv::Point_<int>, std::allocator<cv::Point_<int>>>::_Vector_impl" }
%"struct.std::_Vector_base<cv::Point_<int>, std::allocator<cv::Point_<int>>>::_Vector_impl" = type { %"struct.std::_Vector_base<cv::Point_<int>, std::allocator<cv::Point_<int>>>::_Vector_impl_data" }
%"struct.std::_Vector_base<cv::Point_<int>, std::allocator<cv::Point_<int>>>::_Vector_impl_data" = type { ptr, ptr, ptr }
%"class.std::vector.20" = type { %"struct.std::_Vector_base.21" }
%"struct.std::_Vector_base.21" = type { %"struct.std::_Vector_base<int, std::allocator<int>>::_Vector_impl" }
%"struct.std::_Vector_base<int, std::allocator<int>>::_Vector_impl" = type { %"struct.std::_Vector_base<int, std::allocator<int>>::_Vector_impl_data" }
%"struct.std::_Vector_base<int, std::allocator<int>>::_Vector_impl_data" = type { ptr, ptr, ptr }
%"class.cv::Mat_" = type { %"class.cv::Mat" }
%"class.cv::Mat" = type { i32, i32, i32, i32, ptr, ptr, ptr, ptr, ptr, ptr, %"struct.cv::MatSize", %"struct.cv::MatStep" }
%"struct.cv::MatSize" = type { ptr }
%"struct.cv::MatStep" = type { ptr, [2 x i64] }

; Function Attrs: mustprogress uwtable
define hidden noundef double @_ZNK2cv8tracking4impl3tld11TLDDetector13computeSminusERKNS_4Mat_IhEE(ptr noundef nonnull align 8 dereferenceable(312) %0, ptr noundef nonnull align 8 dereferenceable(96) %1) #6 align 2 personality ptr @__gxx_personality_v0 {
  %3 = alloca ptr, align 8
  %4 = alloca ptr, align 8
  %5 = alloca double, align 8
  %6 = alloca %"class.cv::Mat_", align 8
  %7 = alloca i32, align 4
  %8 = alloca double, align 8
  %9 = alloca ptr, align 8
  %10 = alloca i32, align 4
  store ptr %0, ptr %3, align 8, !tbaa !13
  store ptr %1, ptr %4, align 8, !tbaa !30
  %11 = load ptr, ptr %3, align 8
  call void @llvm.lifetime.start.p0(i64 8, ptr %5) #3
  store double 0.000000e+00, ptr %5, align 8, !tbaa !27
  call void @llvm.lifetime.start.p0(i64 96, ptr %6) #3
  call void @_ZN2cv4Mat_IhEC2Eii(ptr noundef nonnull align 8 dereferenceable(96) %6, i32 noundef 15, i32 noundef 15)
  call void @llvm.lifetime.start.p0(i64 4, ptr %7) #3
  store i32 0, ptr %7, align 4, !tbaa !8
  br label %12

12:                                               ; preds = %37, %2
  %13 = load i32, ptr %7, align 4, !tbaa !8
  %14 = getelementptr inbounds nuw %"class.cv::tracking::impl::tld::TLDDetector", ptr %11, i32 0, i32 4
  %15 = load ptr, ptr %14, align 8, !tbaa !32
  %16 = load i32, ptr %15, align 4, !tbaa !8
  %17 = icmp slt i32 %13, %16
  br i1 %17, label %19, label %18

18:                                               ; preds = %12
  call void @llvm.lifetime.end.p0(i64 4, ptr %7) #3
  br label %44

19:                                               ; preds = %12
  %20 = getelementptr inbounds nuw %"class.cv::tracking::impl::tld::TLDDetector", ptr %11, i32 0, i32 2
  %21 = load ptr, ptr %20, align 8, !tbaa !63
  %22 = getelementptr inbounds nuw %"class.cv::Mat", ptr %21, i32 0, i32 4
  %23 = load ptr, ptr %22, align 8, !tbaa !64
  %24 = load i32, ptr %7, align 4, !tbaa !8
  %25 = mul nsw i32 %24, 225
  %26 = sext i32 %25 to i64
  %27 = getelementptr inbounds i8, ptr %23, i64 %26
  %28 = getelementptr inbounds nuw %"class.cv::Mat", ptr %6, i32 0, i32 4
  store ptr %27, ptr %28, align 8, !tbaa !64
  call void @llvm.lifetime.start.p0(i64 8, ptr %8) #3
  %29 = load ptr, ptr %4, align 8, !tbaa !30
  %30 = invoke noundef double @_ZN2cv17tracking_internal10computeNCCERKNS_3MatES3_(ptr noundef nonnull align 8 dereferenceable(96) %6, ptr noundef nonnull align 8 dereferenceable(96) %29)
          to label %31 unwind label %40

31:                                               ; preds = %19
  %32 = fadd double %30, 1.000000e+00
  %33 = fmul double 5.000000e-01, %32
  store double %33, ptr %8, align 8, !tbaa !27
  %34 = invoke noundef nonnull align 8 dereferenceable(8) ptr @_ZSt3maxIdERKT_S2_S2_(ptr noundef nonnull align 8 dereferenceable(8) %5, ptr noundef nonnull align 8 dereferenceable(8) %8)
          to label %35 unwind label %40

35:                                               ; preds = %31
  %36 = load double, ptr %34, align 8, !tbaa !27
  store double %36, ptr %5, align 8, !tbaa !27
  call void @llvm.lifetime.end.p0(i64 8, ptr %8) #3
  br label %37

37:                                               ; preds = %35
  %38 = load i32, ptr %7, align 4, !tbaa !8
  %39 = add nsw i32 %38, 1
  store i32 %39, ptr %7, align 4, !tbaa !8
  br label %12, !llvm.loop !71

40:                                               ; preds = %31, %19
  %41 = landingpad { ptr, i32 }
          cleanup
  %42 = extractvalue { ptr, i32 } %41, 0
  store ptr %42, ptr %9, align 8
  %43 = extractvalue { ptr, i32 } %41, 1
  store i32 %43, ptr %10, align 4
  call void @llvm.lifetime.end.p0(i64 8, ptr %8) #3
  call void @llvm.lifetime.end.p0(i64 4, ptr %7) #3
  call void @_ZN2cv3MatD2Ev(ptr noundef nonnull align 8 dereferenceable(96) %6) #3
  call void @llvm.lifetime.end.p0(i64 96, ptr %6) #3
  call void @llvm.lifetime.end.p0(i64 8, ptr %5) #3
  br label %46

44:                                               ; preds = %18
  %45 = load double, ptr %5, align 8, !tbaa !27
  call void @_ZN2cv3MatD2Ev(ptr noundef nonnull align 8 dereferenceable(96) %6) #3
  call void @llvm.lifetime.end.p0(i64 96, ptr %6) #3
  call void @llvm.lifetime.end.p0(i64 8, ptr %5) #3
  ret double %45

46:                                               ; preds = %40
  %47 = load ptr, ptr %9, align 8
  %48 = load i32, ptr %10, align 4
  %49 = insertvalue { ptr, i32 } poison, ptr %47, 0
  %50 = insertvalue { ptr, i32 } %49, i32 %48, 1
  resume { ptr, i32 } %50
}

; Function Attrs: inlinehint mustprogress nounwind uwtable
define linkonce_odr noundef nonnull align 8 dereferenceable(8) ptr @_ZSt3maxIdERKT_S2_S2_(ptr noundef nonnull align 8 dereferenceable(8) %0, ptr noundef nonnull align 8 dereferenceable(8) %1) #4 comdat {
  %3 = alloca ptr, align 8
  %4 = alloca ptr, align 8
  %5 = alloca ptr, align 8
  store ptr %0, ptr %4, align 8, !tbaa !72
  store ptr %1, ptr %5, align 8, !tbaa !72
  %6 = load ptr, ptr %4, align 8, !tbaa !72
  %7 = load double, ptr %6, align 8, !tbaa !27
  %8 = load ptr, ptr %5, align 8, !tbaa !72
  %9 = load double, ptr %8, align 8, !tbaa !27
  %10 = fcmp olt double %7, %9
  br i1 %10, label %11, label %13

11:                                               ; preds = %2
  %12 = load ptr, ptr %5, align 8, !tbaa !72
  store ptr %12, ptr %3, align 8
  br label %15

13:                                               ; preds = %2
  %14 = load ptr, ptr %4, align 8, !tbaa !72
  store ptr %14, ptr %3, align 8
  br label %15

15:                                               ; preds = %13, %11
  %16 = load ptr, ptr %3, align 8
  ret ptr %16
}

; Function Attrs: inlinehint mustprogress uwtable
define linkonce_odr hidden void @_ZN2cv4Mat_IhEC2Eii(ptr noundef nonnull align 8 dereferenceable(96) %0, i32 noundef %1, i32 noundef %2) unnamed_addr #8 comdat align 2 {
  %4 = alloca ptr, align 8
  %5 = alloca i32, align 4
  %6 = alloca i32, align 4
  store ptr %0, ptr %4, align 8, !tbaa !30
  store i32 %1, ptr %5, align 4, !tbaa !8
  store i32 %2, ptr %6, align 4, !tbaa !8
  %7 = load ptr, ptr %4, align 8
  %8 = load i32, ptr %5, align 4, !tbaa !8
  %9 = load i32, ptr %6, align 4, !tbaa !8
  call void @_ZN2cv3MatC2Eiii(ptr noundef nonnull align 8 dereferenceable(96) %7, i32 noundef %8, i32 noundef %9, i32 noundef 0)
  ret void
}

; Function Attrs: mustprogress uwtable
define hidden noundef double @_ZNK2cv8tracking4impl3tld11TLDDetector2SrERKNS_4Mat_IhEE(ptr noundef nonnull align 8 dereferenceable(312) %0, ptr noundef nonnull align 8 dereferenceable(96) %1) #6 align 2 personality ptr @__gxx_personality_v0 {
  %3 = alloca double, align 8
  %4 = alloca ptr, align 8
  %5 = alloca ptr, align 8
  %6 = alloca double, align 8
  %7 = alloca double, align 8
  %8 = alloca %"class.cv::Mat_", align 8
  %9 = alloca i32, align 4
  %10 = alloca double, align 8
  %11 = alloca ptr, align 8
  %12 = alloca i32, align 4
  %13 = alloca i32, align 4
  store ptr %0, ptr %4, align 8, !tbaa !13
  store ptr %1, ptr %5, align 8, !tbaa !30
  %14 = load ptr, ptr %4, align 8
  call void @llvm.lifetime.start.p0(i64 8, ptr %6) #3
  store double 0.000000e+00, ptr %6, align 8, !tbaa !27
  call void @llvm.lifetime.start.p0(i64 8, ptr %7) #3
  store double 0.000000e+00, ptr %7, align 8, !tbaa !27
  call void @llvm.lifetime.start.p0(i64 96, ptr %8) #3
  call void @_ZN2cv4Mat_IhEC2Eii(ptr noundef nonnull align 8 dereferenceable(96) %8, i32 noundef 15, i32 noundef 15)
  call void @llvm.lifetime.start.p0(i64 4, ptr %9) #3
  store i32 0, ptr %9, align 4, !tbaa !8
  br label %15

15:                                               ; preds = %40, %2
  %16 = load i32, ptr %9, align 4, !tbaa !8
  %17 = getelementptr inbounds nuw %"class.cv::tracking::impl::tld::TLDDetector", ptr %14, i32 0, i32 3
  %18 = load ptr, ptr %17, align 8, !tbaa !73
  %19 = load i32, ptr %18, align 4, !tbaa !8
  %20 = icmp slt i32 %16, %19
  br i1 %20, label %22, label %21

21:                                               ; preds = %15
  call void @llvm.lifetime.end.p0(i64 4, ptr %9) #3
  br label %47

22:                                               ; preds = %15
  %23 = getelementptr inbounds nuw %"class.cv::tracking::impl::tld::TLDDetector", ptr %14, i32 0, i32 1
  %24 = load ptr, ptr %23, align 8, !tbaa !74
  %25 = getelementptr inbounds nuw %"class.cv::Mat", ptr %24, i32 0, i32 4
  %26 = load ptr, ptr %25, align 8, !tbaa !64
  %27 = load i32, ptr %9, align 4, !tbaa !8
  %28 = mul nsw i32 %27, 225
  %29 = sext i32 %28 to i64
  %30 = getelementptr inbounds i8, ptr %26, i64 %29
  %31 = getelementptr inbounds nuw %"class.cv::Mat", ptr %8, i32 0, i32 4
  store ptr %30, ptr %31, align 8, !tbaa !64
  call void @llvm.lifetime.start.p0(i64 8, ptr %10) #3
  %32 = load ptr, ptr %5, align 8, !tbaa !30
  %33 = invoke noundef double @_ZN2cv17tracking_internal10computeNCCERKNS_3MatES3_(ptr noundef nonnull align 8 dereferenceable(96) %8, ptr noundef nonnull align 8 dereferenceable(96) %32)
          to label %34 unwind label %43

34:                                               ; preds = %22
  %35 = fadd double %33, 1.000000e+00
  %36 = fmul double 5.000000e-01, %35
  store double %36, ptr %10, align 8, !tbaa !27
  %37 = invoke noundef nonnull align 8 dereferenceable(8) ptr @_ZSt3maxIdERKT_S2_S2_(ptr noundef nonnull align 8 dereferenceable(8) %6, ptr noundef nonnull align 8 dereferenceable(8) %10)
          to label %38 unwind label %43

38:                                               ; preds = %34
  %39 = load double, ptr %37, align 8, !tbaa !27
  store double %39, ptr %6, align 8, !tbaa !27
  call void @llvm.lifetime.end.p0(i64 8, ptr %10) #3
  br label %40

40:                                               ; preds = %38
  %41 = load i32, ptr %9, align 4, !tbaa !8
  %42 = add nsw i32 %41, 1
  store i32 %42, ptr %9, align 4, !tbaa !8
  br label %15, !llvm.loop !75

43:                                               ; preds = %34, %22
  %44 = landingpad { ptr, i32 }
          cleanup
  %45 = extractvalue { ptr, i32 } %44, 0
  store ptr %45, ptr %11, align 8
  %46 = extractvalue { ptr, i32 } %44, 1
  store i32 %46, ptr %12, align 4
  call void @llvm.lifetime.end.p0(i64 8, ptr %10) #3
  call void @llvm.lifetime.end.p0(i64 4, ptr %9) #3
  br label %68

47:                                               ; preds = %21
  %48 = load ptr, ptr %5, align 8, !tbaa !30
  %49 = invoke noundef double @_ZNK2cv8tracking4impl3tld11TLDDetector13computeSminusERKNS_4Mat_IhEE(ptr noundef nonnull align 8 dereferenceable(312) %14, ptr noundef nonnull align 8 dereferenceable(96) %48)
          to label %50 unwind label %56

50:                                               ; preds = %47
  store double %49, ptr %7, align 8, !tbaa !27
  %51 = load double, ptr %6, align 8, !tbaa !27
  %52 = load double, ptr %7, align 8, !tbaa !27
  %53 = fadd double %51, %52
  %54 = fcmp oeq double %53, 0.000000e+00
  br i1 %54, label %55, label %60

55:                                               ; preds = %50
  store double 0.000000e+00, ptr %3, align 8
  store i32 1, ptr %13, align 4
  br label %66

56:                                               ; preds = %47
  %57 = landingpad { ptr, i32 }
          cleanup
  %58 = extractvalue { ptr, i32 } %57, 0
  store ptr %58, ptr %11, align 8
  %59 = extractvalue { ptr, i32 } %57, 1
  store i32 %59, ptr %12, align 4
  br label %68

60:                                               ; preds = %50
  %61 = load double, ptr %6, align 8, !tbaa !27
  %62 = load double, ptr %7, align 8, !tbaa !27
  %63 = load double, ptr %6, align 8, !tbaa !27
  %64 = fadd double %62, %63
  %65 = fdiv double %61, %64
  store double %65, ptr %3, align 8
  store i32 1, ptr %13, align 4
  br label %66

66:                                               ; preds = %60, %55
  call void @_ZN2cv3MatD2Ev(ptr noundef nonnull align 8 dereferenceable(96) %8) #3
  call void @llvm.lifetime.end.p0(i64 96, ptr %8) #3
  call void @llvm.lifetime.end.p0(i64 8, ptr %7) #3
  call void @llvm.lifetime.end.p0(i64 8, ptr %6) #3
  %67 = load double, ptr %3, align 8
  ret double %67

68:                                               ; preds = %56, %43
  call void @_ZN2cv3MatD2Ev(ptr noundef nonnull align 8 dereferenceable(96) %8) #3
  call void @llvm.lifetime.end.p0(i64 96, ptr %8) #3
  call void @llvm.lifetime.end.p0(i64 8, ptr %7) #3
  call void @llvm.lifetime.end.p0(i64 8, ptr %6) #3
  br label %69

69:                                               ; preds = %68
  %70 = load ptr, ptr %11, align 8
  %71 = load i32, ptr %12, align 4
  %72 = insertvalue { ptr, i32 } poison, ptr %70, 0
  %73 = insertvalue { ptr, i32 } %72, i32 %71, 1
  resume { ptr, i32 } %73
}