; Function Attrs: mustprogress uwtable
define hidden noundef double @_ZNK2cv8tracking4impl3tld11TLDDetector2SrERKNS_4Mat_IhEE(ptr noundef nonnull readonly align 8 captures(none) dereferenceable(312) %0, ptr noundef nonnull align 8 dereferenceable(96) %1) local_unnamed_addr #4 align 2 personality ptr @__gxx_personality_v0 {
  %3 = alloca %"class.cv::Mat_", align 8
  %4 = alloca %"class.cv::Mat_", align 8
  call void @llvm.lifetime.start.p0(i64 96, ptr nonnull %4) #22
  call void @_ZN2cv3MatC2Eiii(ptr noundef nonnull align 8 dereferenceable(96) %4, i32 noundef 15, i32 noundef 15, i32 noundef 0)
  %5 = getelementptr inbounds nuw i8, ptr %0, i64 40
  %6 = load ptr, ptr %5, align 8, !tbaa !57
  %7 = load i32, ptr %6, align 4, !tbaa !45
  %8 = icmp sgt i32 %7, 0
  br i1 %8, label %.lr.ph, label %._crit_edge

.lr.ph:                                           ; preds = %2
  %9 = getelementptr inbounds nuw i8, ptr %0, i64 24
  %10 = getelementptr inbounds nuw i8, ptr %4, i64 16
  br label %34

._crit_edge:                                      ; preds = %41, %2
  %.0.lcssa = phi double [ 0.000000e+00, %2 ], [ %.sroa.speculated, %41 ]
  call void @llvm.lifetime.start.p0(i64 96, ptr nonnull %3) #22
  invoke void @_ZN2cv3MatC2Eiii(ptr noundef nonnull align 8 dereferenceable(96) %3, i32 noundef 15, i32 noundef 15, i32 noundef 0)
          to label %.noexc unwind label %54

.noexc:                                           ; preds = %._crit_edge
  %11 = getelementptr inbounds nuw i8, ptr %0, i64 48
  %12 = load ptr, ptr %11, align 8, !tbaa !13
  %13 = load i32, ptr %12, align 4, !tbaa !45
  %14 = icmp sgt i32 %13, 0
  br i1 %14, label %.lr.ph.i, label %.loopexit

.lr.ph.i:                                         ; preds = %.noexc
  %15 = getelementptr inbounds nuw i8, ptr %0, i64 32
  %16 = getelementptr inbounds nuw i8, ptr %3, i64 16
  br label %17

17:                                               ; preds = %24, %.lr.ph.i
  %indvars.iv.i = phi i64 [ 0, %.lr.ph.i ], [ %indvars.iv.next.i, %24 ]
  %.079.i = phi double [ 0.000000e+00, %.lr.ph.i ], [ %.sroa.speculated.i, %24 ]
  %18 = load ptr, ptr %15, align 8, !tbaa !47
  %19 = getelementptr inbounds nuw i8, ptr %18, i64 16
  %20 = load ptr, ptr %19, align 8, !tbaa !48
  %21 = mul nuw nsw i64 %indvars.iv.i, 225
  %22 = getelementptr inbounds nuw i8, ptr %20, i64 %21
  store ptr %22, ptr %16, align 8, !tbaa !48
  %23 = invoke noundef double @_ZN2cv17tracking_internal10computeNCCERKNS_3MatES3_(ptr noundef nonnull align 8 dereferenceable(96) %3, ptr noundef nonnull align 8 dereferenceable(96) %1)
          to label %24 unwind label %32

24:                                               ; preds = %17
  %25 = fadd double %23, 1.000000e+00
  %26 = fmul double %25, 5.000000e-01
  %27 = fcmp olt double %.079.i, %26
  %.sroa.speculated.i = select i1 %27, double %26, double %.079.i
  %indvars.iv.next.i = add nuw nsw i64 %indvars.iv.i, 1
  %28 = load ptr, ptr %11, align 8, !tbaa !13
  %29 = load i32, ptr %28, align 4, !tbaa !45
  %30 = sext i32 %29 to i64
  %31 = icmp slt i64 %indvars.iv.next.i, %30
  br i1 %31, label %17, label %.loopexit, !llvm.loop !56

32:                                               ; preds = %17
  %33 = landingpad { ptr, i32 }
          cleanup
  call void @_ZN2cv3MatD2Ev(ptr noundef nonnull align 8 dereferenceable(96) %3) #22
  call void @llvm.lifetime.end.p0(i64 96, ptr nonnull %3) #22
  br label %.body

34:                                               ; preds = %.lr.ph, %41
  %indvars.iv = phi i64 [ 0, %.lr.ph ], [ %indvars.iv.next, %41 ]
  %.017 = phi double [ 0.000000e+00, %.lr.ph ], [ %.sroa.speculated, %41 ]
  %35 = load ptr, ptr %9, align 8, !tbaa !58
  %36 = getelementptr inbounds nuw i8, ptr %35, i64 16
  %37 = load ptr, ptr %36, align 8, !tbaa !48
  %38 = mul nuw nsw i64 %indvars.iv, 225
  %39 = getelementptr inbounds nuw i8, ptr %37, i64 %38
  store ptr %39, ptr %10, align 8, !tbaa !48
  %40 = invoke noundef double @_ZN2cv17tracking_internal10computeNCCERKNS_3MatES3_(ptr noundef nonnull align 8 dereferenceable(96) %4, ptr noundef nonnull align 8 dereferenceable(96) %1)
          to label %41 unwind label %49

41:                                               ; preds = %34
  %42 = fadd double %40, 1.000000e+00
  %43 = fmul double %42, 5.000000e-01
  %44 = fcmp olt double %.017, %43
  %.sroa.speculated = select i1 %44, double %43, double %.017
  %indvars.iv.next = add nuw nsw i64 %indvars.iv, 1
  %45 = load ptr, ptr %5, align 8, !tbaa !57
  %46 = load i32, ptr %45, align 4, !tbaa !45
  %47 = sext i32 %46 to i64
  %48 = icmp slt i64 %indvars.iv.next, %47
  br i1 %48, label %34, label %._crit_edge, !llvm.loop !59

49:                                               ; preds = %34
  %50 = landingpad { ptr, i32 }
          cleanup
  br label %.body

.loopexit:                                        ; preds = %24, %.noexc
  %.07.lcssa.i = phi double [ 0.000000e+00, %.noexc ], [ %.sroa.speculated.i, %24 ]
  call void @_ZN2cv3MatD2Ev(ptr noundef nonnull align 8 dereferenceable(96) %3) #22
  call void @llvm.lifetime.end.p0(i64 96, ptr nonnull %3) #22
  %51 = fadd double %.0.lcssa, %.07.lcssa.i
  %52 = fcmp oeq double %51, 0.000000e+00
  %53 = fdiv double %.0.lcssa, %51
  %.012 = select i1 %52, double 0.000000e+00, double %53
  call void @_ZN2cv3MatD2Ev(ptr noundef nonnull align 8 dereferenceable(96) %4) #22
  call void @llvm.lifetime.end.p0(i64 96, ptr nonnull %4) #22
  ret double %.012

54:                                               ; preds = %._crit_edge
  %55 = landingpad { ptr, i32 }
          cleanup
  br label %.body

.body:                                            ; preds = %54, %32, %49
  %.pn = phi { ptr, i32 } [ %50, %49 ], [ %55, %54 ], [ %33, %32 ]
  call void @_ZN2cv3MatD2Ev(ptr noundef nonnull align 8 dereferenceable(96) %4) #22
  call void @llvm.lifetime.end.p0(i64 96, ptr nonnull %4) #22
  resume { ptr, i32 } %.pn
}